Certificate:
    Data:
        Version: 3 (0x2)
        Serial Number: 2 (0x2)
    Signature Algorithm: sha256WithRSAEncryption
        Issuer: C=US, ST=CA, L=SanFrancisco, O=Fort-Funston, OU=MyOrganizationalUnit, CN=Fort-Funston CA/name=server/emailAddress=me@myhost.mydomain
        Validity
            Not Before: Oct  1 19:00:59 2018 GMT
            Not After : Sep 28 19:00:59 2028 GMT
        Subject: C=US, ST=CA, L=SanFrancisco, O=Fort-Funston, OU=MyOrganizationalUnit, CN=client1/name=server/emailAddress=me@myhost.mydomain
        Subject Public Key Info:
            Public Key Algorithm: rsaEncryption
                Public-Key: (2048 bit)
                Modulus:
                    00:b6:43:5a:94:fe:7a:38:76:24:a2:db:11:9f:2b:
                    a7:de:66:c5:d5:41:12:f9:35:35:33:d8:85:e2:df:
                    f1:7a:af:b5:13:af:5a:75:02:0e:88:a9:2e:c4:27:
                    ff:32:b5:59:35:a9:9f:96:e8:f8:a0:cb:79:0b:29:
                    b0:62:cf:9f:e0:3b:3a:5a:1b:52:c6:74:30:f6:24:
                    35:4e:42:6c:6e:26:6e:1f:11:37:2b:88:89:20:db:
                    72:75:64:cd:4e:b2:f3:f9:6b:eb:0d:7c:51:7c:c5:
                    ba:23:18:3e:45:b2:5e:04:12:0f:ff:49:35:82:12:
                    c5:10:e0:ba:2e:8f:c7:46:ad:5e:4f:b6:5b:d8:56:
                    f1:a9:18:04:a4:ff:8a:89:15:e2:d9:5a:65:09:83:
                    20:5c:2f:ae:a6:51:b2:f9:d5:2c:96:d5:7d:04:bf:
                    bf:65:c4:a3:2a:3a:0e:7c:40:10:08:47:4b:00:a9:
                    7a:ff:82:dc:e3:03:67:bd:21:1a:78:ca:6a:4b:9e:
                    63:8f:ca:e7:05:30:7b:25:a6:67:a6:aa:6b:4b:ec:
                    34:65:f2:df:dc:e9:fe:33:73:e2:b3:28:c2:79:e9:
                    dd:3d:35:c3:23:76:31:73:90:f8:a7:25:cd:98:8b:
                    b5:24:5b:ed:dd:61:2e:5f:31:0f:8d:7a:1e:90:01:
                    2d:a7
                Exponent: 65537 (0x10001)
        X509v3 extensions:
            X509v3 Basic Constraints: 
                CA:FALSE
            Netscape Comment: 
                Easy-RSA Generated Certificate
            X509v3 Subject Key Identifier: 
                70:47:47:CD:30:D2:28:6F:DC:27:7D:35:AE:E7:B9:73:0E:1F:0D:F7
            X509v3 Authority Key Identifier: 
                keyid:7F:32:1A:F9:0A:F9:15:22:2A:7A:58:D2:1B:02:6F:77:BA:0F:0C:9C
                DirName:/C=US/ST=CA/L=SanFrancisco/O=Fort-Funston/OU=MyOrganizationalUnit/CN=Fort-Funston CA/name=server/emailAddress=me@myhost.mydomain
                serial:FF:A5:DC:D7:48:E9:1D:E4

            X509v3 Extended Key Usage: 
                TLS Web Client Authentication
            X509v3 Key Usage: 
                Digital Signature
            X509v3 Subject Alternative Name: 
                DNS:client1
    Signature Algorithm: sha256WithRSAEncryption
         35:d0:a5:27:26:c1:74:73:b2:b3:a0:7d:fe:ec:b1:73:b5:f5:
         0e:d5:dd:10:85:81:00:87:f5:d6:44:fd:f8:38:58:71:a7:dc:
         d8:91:39:ad:62:1a:9d:f9:26:c2:6e:90:81:58:71:6d:be:a9:
         8e:de:1c:bd:4a:27:ce:ae:fa:c5:14:5f:1f:e1:c1:33:a4:82:
         e5:14:a5:49:62:e3:27:23:6b:da:7a:ca:46:59:4d:bd:b1:88:
         16:ff:93:8d:ca:32:ee:a1:26:5f:59:5d:ba:70:2e:e0:32:4f:
         e3:d3:5f:e6:fe:d2:5d:d6:ef:85:5e:6d:9c:51:69:da:28:6e:
         d8:1d:b4:2e:5c:86:f4:91:af:99:08:7a:a1:28:e4:01:e8:f7:
         f4:70:8c:e5:91:70:51:3e:e9:6e:65:d4:26:89:ee:c7:fc:0d:
         5f:8e:c4:e4:ab:ff:09:83:0a:c3:17:35:2e:31:f3:0c:81:db:
         9c:a8:13:70:0e:93:94:7d:1a:c3:ef:94:09:34:7a:20:e8:10:
         30:44:b4:a5:bb:76:b4:e4:e4:d8:13:9c:3c:2f:d8:4b:2a:6e:
         be:25:07:23:19:86:dd:ed:51:54:0c:34:99:5c:73:2f:71:d7:
         19:27:f4:18:72:5a:1b:5c:a1:90:9d:cb:65:c7:2b:92:54:1e:
         07:5f:86:70
-----BEGIN CERTIFICATE-----
MIIFYTCCBEmgAwIBAgIBAjANBgkqhkiG9w0BAQsFADCBtTELMAkGA1UEBhMCVVMx
CzAJBgNVBAgTAkNBMRUwEwYDVQQHEwxTYW5GcmFuY2lzY28xFTATBgNVBAoTDEZv
cnQtRnVuc3RvbjEdMBsGA1UECxMUTXlPcmdhbml6YXRpb25hbFVuaXQxGDAWBgNV
BAMTD0ZvcnQtRnVuc3RvbiBDQTEPMA0GA1UEKRMGc2VydmVyMSEwHwYJKoZIhvcN
AQkBFhJtZUBteWhvc3QubXlkb21haW4wHhcNMTgxMDAxMTkwMDU5WhcNMjgwOTI4
MTkwMDU5WjCBrTELMAkGA1UEBhMCVVMxCzAJBgNVBAgTAkNBMRUwEwYDVQQHEwxT
YW5GcmFuY2lzY28xFTATBgNVBAoTDEZvcnQtRnVuc3RvbjEdMBsGA1UECxMUTXlP
cmdhbml6YXRpb25hbFVuaXQxEDAOBgNVBAMTB2NsaWVudDExDzANBgNVBCkTBnNl
cnZlcjEhMB8GCSqGSIb3DQEJARYSbWVAbXlob3N0Lm15ZG9tYWluMIIBIjANBgkq
hkiG9w0BAQEFAAOCAQ8AMIIBCgKCAQEAtkNalP56OHYkotsRnyun3mbF1UES+TU1
M9iF4t/xeq+1E69adQIOiKkuxCf/MrVZNamfluj4oMt5CymwYs+f4Ds6WhtSxnQw
9iQ1TkJsbiZuHxE3K4iJINtydWTNTrLz+WvrDXxRfMW6Ixg+RbJeBBIP/0k1ghLF
EOC6Lo/HRq1eT7Zb2FbxqRgEpP+KiRXi2VplCYMgXC+uplGy+dUsltV9BL+/ZcSj
KjoOfEAQCEdLAKl6/4Lc4wNnvSEaeMpqS55jj8rnBTB7JaZnpqprS+w0ZfLf3On+
M3PisyjCeendPTXDI3Yxc5D4pyXNmIu1JFvt3WEuXzEPjXoekAEtpwIDAQABo4IB
gDCCAXwwCQYDVR0TBAIwADAtBglghkgBhvhCAQ0EIBYeRWFzeS1SU0EgR2VuZXJh
dGVkIENlcnRpZmljYXRlMB0GA1UdDgQWBBRwR0fNMNIob9wnfTWu57lzDh8N9zCB
6gYDVR0jBIHiMIHfgBR/Mhr5CvkVIip6WNIbAm93ug8MnKGBu6SBuDCBtTELMAkG
A1UEBhMCVVMxCzAJBgNVBAgTAkNBMRUwEwYDVQQHEwxTYW5GcmFuY2lzY28xFTAT
BgNVBAoTDEZvcnQtRnVuc3RvbjEdMBsGA1UECxMUTXlPcmdhbml6YXRpb25hbFVu
aXQxGDAWBgNVBAMTD0ZvcnQtRnVuc3RvbiBDQTEPMA0GA1UEKRMGc2VydmVyMSEw
HwYJKoZIhvcNAQkBFhJtZUBteWhvc3QubXlkb21haW6CCQD/pdzXSOkd5DATBgNV
HSUEDDAKBggrBgEFBQcDAjALBgNVHQ8EBAMCB4AwEgYDVR0RBAswCYIHY2xpZW50
MTANBgkqhkiG9w0BAQsFAAOCAQEANdClJybBdHOys6B9/uyxc7X1DtXdEIWBAIf1
1kT9+DhYcafc2JE5rWIanfkmwm6QgVhxbb6pjt4cvUonzq76xRRfH+HBM6SC5RSl
SWLjJyNr2nrKRllNvbGIFv+Tjcoy7qEmX1ldunAu4DJP49Nf5v7SXdbvhV5tnFFp
2ihu2B20LlyG9JGvmQh6oSjkAej39HCM5ZFwUT7pbmXUJonux/wNX47E5Kv/CYMK
wxc1LjHzDIHbnKgTcA6TlH0aw++UCTR6IOgQMES0pbt2tOTk2BOcPC/YSypuviUH
IxmG3e1RVAw0mVxzL3HXGSf0GHJaG1yhkJ3LZccrklQeB1+GcA==
-----END CERTIFICATE-----
